; ModuleID = '57/2008.c'
source_filename = "57/2008.c"
target datalayout = "e-m:e-p270:32:32-p271:32:32-p272:64:64-i64:64-f80:128-n8:16:32:64-S128"
target triple = "x86_64-pc-linux-gnu"

@.str = private unnamed_addr constant [3 x i8] c"%d\00", align 1
@.str.1 = private unnamed_addr constant [3 x i8] c"%s\00", align 1
@.str.2 = private unnamed_addr constant [4 x i8] c"%s\0A\00", align 1

; Function Attrs: noinline nounwind uwtable
define dso_local i32 @main() #0 {
  %1 = alloca i32, align 4
  %2 = alloca i32, align 4
  %3 = alloca i32, align 4
  %4 = alloca i32, align 4
  %5 = alloca i32, align 4
  %6 = alloca [50 x [33 x i8]], align 16
  store i32 0, i32* %1, align 4
  %7 = call i32 (i8*, ...) @__isoc99_scanf(i8* getelementptr inbounds ([3 x i8], [3 x i8]* @.str, i64 0, i64 0), i32* %4)
  store i32 0, i32* %2, align 4
  br label %8

8:                                                ; preds = %18, %0
  %9 = load i32, i32* %2, align 4
  %10 = load i32, i32* %4, align 4
  %11 = icmp slt i32 %9, %10
  br i1 %11, label %12, label %21

12:                                               ; preds = %8
  %13 = load i32, i32* %2, align 4
  %14 = sext i32 %13 to i64
  %15 = getelementptr inbounds [50 x [33 x i8]], [50 x [33 x i8]]* %6, i64 0, i64 %14
  %16 = getelementptr inbounds [33 x i8], [33 x i8]* %15, i64 0, i64 0
  %17 = call i32 (i8*, ...) @__isoc99_scanf(i8* getelementptr inbounds ([3 x i8], [3 x i8]* @.str.1, i64 0, i64 0), i8* %16)
  br label %18

18:                                               ; preds = %12
  %19 = load i32, i32* %2, align 4
  %20 = add nsw i32 %19, 1
  store i32 %20, i32* %2, align 4
  br label %8

21:                                               ; preds = %8
  store i32 0, i32* %3, align 4
  br label %22

22:                                               ; preds = %96, %21
  %23 = load i32, i32* %3, align 4
  %24 = load i32, i32* %4, align 4
  %25 = icmp slt i32 %23, %24
  br i1 %25, label %26, label %99

26:                                               ; preds = %22
  store i32 0, i32* %2, align 4
  br label %27

27:                                               ; preds = %87, %26
  %28 = load i32, i32* %2, align 4
  %29 = load i32, i32* %4, align 4
  %30 = icmp slt i32 %28, %29
  br i1 %30, label %31, label %90

31:                                               ; preds = %27
  %32 = load i32, i32* %2, align 4
  %33 = sext i32 %32 to i64
  %34 = getelementptr inbounds [50 x [33 x i8]], [50 x [33 x i8]]* %6, i64 0, i64 %33
  %35 = getelementptr inbounds [33 x i8], [33 x i8]* %34, i64 0, i64 0
  %36 = call i64 @strlen(i8* %35) #3
  %37 = trunc i64 %36 to i32
  store i32 %37, i32* %5, align 4
  %38 = load i32, i32* %2, align 4
  %39 = sext i32 %38 to i64
  %40 = getelementptr inbounds [50 x [33 x i8]], [50 x [33 x i8]]* %6, i64 0, i64 %39
  %41 = load i32, i32* %5, align 4
  %42 = sub nsw i32 %41, 1
  %43 = sext i32 %42 to i64
  %44 = getelementptr inbounds [33 x i8], [33 x i8]* %40, i64 0, i64 %43
  %45 = load i8, i8* %44, align 1
  %46 = sext i8 %45 to i32
  %47 = icmp eq i32 %46, 121
  br i1 %47, label %59, label %48

48:                                               ; preds = %31
  %49 = load i32, i32* %2, align 4
  %50 = sext i32 %49 to i64
  %51 = getelementptr inbounds [50 x [33 x i8]], [50 x [33 x i8]]* %6, i64 0, i64 %50
  %52 = load i32, i32* %5, align 4
  %53 = sub nsw i32 %52, 1
  %54 = sext i32 %53 to i64
  %55 = getelementptr inbounds [33 x i8], [33 x i8]* %51, i64 0, i64 %54
  %56 = load i8, i8* %55, align 1
  %57 = sext i8 %56 to i32
  %58 = icmp eq i32 %57, 114
  br i1 %58, label %59, label %67

59:                                               ; preds = %48, %31
  %60 = load i32, i32* %2, align 4
  %61 = sext i32 %60 to i64
  %62 = getelementptr inbounds [50 x [33 x i8]], [50 x [33 x i8]]* %6, i64 0, i64 %61
  %63 = load i32, i32* %5, align 4
  %64 = sub nsw i32 %63, 2
  %65 = sext i32 %64 to i64
  %66 = getelementptr inbounds [33 x i8], [33 x i8]* %62, i64 0, i64 %65
  store i8 0, i8* %66, align 1
  br label %90

67:                                               ; preds = %48
  %68 = load i32, i32* %2, align 4
  %69 = sext i32 %68 to i64
  %70 = getelementptr inbounds [50 x [33 x i8]], [50 x [33 x i8]]* %6, i64 0, i64 %69
  %71 = load i32, i32* %5, align 4
  %72 = sub nsw i32 %71, 1
  %73 = sext i32 %72 to i64
  %74 = getelementptr inbounds [33 x i8], [33 x i8]* %70, i64 0, i64 %73
  %75 = load i8, i8* %74, align 1
  %76 = sext i8 %75 to i32
  %77 = icmp eq i32 %76, 103
  br i1 %77, label %78, label %86

78:                                               ; preds = %67
  %79 = load i32, i32* %2, align 4
  %80 = sext i32 %79 to i64
  %81 = getelementptr inbounds [50 x [33 x i8]], [50 x [33 x i8]]* %6, i64 0, i64 %80
  %82 = load i32, i32* %5, align 4
  %83 = sub nsw i32 %82, 3
  %84 = sext i32 %83 to i64
  %85 = getelementptr inbounds [33 x i8], [33 x i8]* %81, i64 0, i64 %84
  store i8 0, i8* %85, align 1
  br label %90

86:                                               ; preds = %67
  br label %87

87:                                               ; preds = %86
  %88 = load i32, i32* %2, align 4
  %89 = add nsw i32 %88, 1
  store i32 %89, i32* %2, align 4
  br label %27

90:                                               ; preds = %78, %59, %27
  %91 = load i32, i32* %3, align 4
  %92 = sext i32 %91 to i64
  %93 = getelementptr inbounds [50 x [33 x i8]], [50 x [33 x i8]]* %6, i64 0, i64 %92
  %94 = getelementptr inbounds [33 x i8], [33 x i8]* %93, i64 0, i64 0
  %95 = call i32 (i8*, ...) @printf(i8* getelementptr inbounds ([4 x i8], [4 x i8]* @.str.2, i64 0, i64 0), i8* %94)
  br label %96

96:                                               ; preds = %90
  %97 = load i32, i32* %3, align 4
  %98 = add nsw i32 %97, 1
  store i32 %98, i32* %3, align 4
  br label %22

99:                                               ; preds = %22
  ret i32 0
}

declare dso_local i32 @__isoc99_scanf(i8*, ...) #1

; Function Attrs: nounwind readonly
declare dso_local i64 @strlen(i8*) #2

declare dso_local i32 @printf(i8*, ...) #1


!llvm.module.flags = !{!0}
!llvm.ident = !{!1}

!0 = !{i32 1, !"wchar_size", i32 4}
!1 = !{!"clang version 10.0.0-4ubuntu1 "}
