; ModuleID = 'source-C-CXX/56/2008.c'
source_filename = "source-C-CXX/56/2008.c"
target datalayout = "e-m:e-p270:32:32-p271:32:32-p272:64:64-i64:64-f80:128-n8:16:32:64-S128"
target triple = "x86_64-pc-linux-gnu"

@.str = private unnamed_addr constant [3 x i8] c"%d\00", align 1
@.str.1 = private unnamed_addr constant [3 x i8] c"%s\00", align 1

; Function Attrs: nofree nounwind sspstrong uwtable
define dso_local i32 @main() local_unnamed_addr #0 {
  %1 = alloca i32, align 4
  %2 = alloca [50 x [33 x i8]], align 16
  %3 = bitcast i32* %1 to i8*
  call void @llvm.lifetime.start.p0i8(i64 4, i8* nonnull %3) #5
  %4 = getelementptr inbounds [50 x [33 x i8]], [50 x [33 x i8]]* %2, i64 0, i64 0, i64 0
  call void @llvm.lifetime.start.p0i8(i64 1650, i8* nonnull %4) #5
  %5 = call i32 (i8*, ...) @__isoc99_scanf(i8* getelementptr inbounds ([3 x i8], [3 x i8]* @.str, i64 0, i64 0), i32* nonnull %1)
  %6 = load i32, i32* %1, align 4, !tbaa !5
  %7 = icmp sgt i32 %6, 0
  br i1 %7, label %10, label %50

8:                                                ; preds = %10
  %9 = icmp sgt i32 %15, 0
  br i1 %9, label %18, label %50

10:                                               ; preds = %0, %10
  %11 = phi i64 [ %14, %10 ], [ 0, %0 ]
  %12 = getelementptr inbounds [50 x [33 x i8]], [50 x [33 x i8]]* %2, i64 0, i64 %11, i64 0
  %13 = call i32 (i8*, ...) @__isoc99_scanf(i8* getelementptr inbounds ([3 x i8], [3 x i8]* @.str.1, i64 0, i64 0), i8* nonnull %12)
  %14 = add nuw nsw i64 %11, 1
  %15 = load i32, i32* %1, align 4, !tbaa !5
  %16 = sext i32 %15 to i64
  %17 = icmp slt i64 %14, %16
  br i1 %17, label %10, label %8, !llvm.loop !9

18:                                               ; preds = %8, %43
  %19 = phi i64 [ %46, %43 ], [ 0, %8 ]
  %20 = phi i32 [ %47, %43 ], [ %15, %8 ]
  %21 = icmp sgt i32 %20, 0
  br i1 %21, label %22, label %43

22:                                               ; preds = %18
  %23 = zext i32 %20 to i64
  br label %24

24:                                               ; preds = %22, %33
  %25 = phi i64 [ 0, %22 ], [ %34, %33 ]
  %26 = getelementptr inbounds [50 x [33 x i8]], [50 x [33 x i8]]* %2, i64 0, i64 %25, i64 0
  %27 = call i64 @strlen(i8* noundef nonnull %26) #6
  %28 = shl i64 %27, 32
  %29 = add i64 %28, -4294967296
  %30 = ashr exact i64 %29, 32
  %31 = getelementptr inbounds [50 x [33 x i8]], [50 x [33 x i8]]* %2, i64 0, i64 %25, i64 %30
  %32 = load i8, i8* %31, align 1, !tbaa !11
  switch i8 %32, label %33 [
    i8 121, label %36
    i8 114, label %36
    i8 103, label %37
  ]

33:                                               ; preds = %24
  %34 = add nuw nsw i64 %25, 1
  %35 = icmp eq i64 %34, %23
  br i1 %35, label %43, label %24, !llvm.loop !12

36:                                               ; preds = %24, %24
  br label %37

37:                                               ; preds = %24, %36
  %38 = phi i64 [ -8589934592, %36 ], [ -12884901888, %24 ]
  %39 = add i64 %28, %38
  %40 = and i64 %25, 4294967295
  %41 = ashr exact i64 %39, 32
  %42 = getelementptr inbounds [50 x [33 x i8]], [50 x [33 x i8]]* %2, i64 0, i64 %40, i64 %41
  store i8 0, i8* %42, align 1, !tbaa !11
  br label %43

43:                                               ; preds = %33, %37, %18
  %44 = getelementptr inbounds [50 x [33 x i8]], [50 x [33 x i8]]* %2, i64 0, i64 %19, i64 0
  %45 = call i32 @puts(i8* nonnull %44)
  %46 = add nuw nsw i64 %19, 1
  %47 = load i32, i32* %1, align 4, !tbaa !5
  %48 = sext i32 %47 to i64
  %49 = icmp slt i64 %46, %48
  br i1 %49, label %18, label %50, !llvm.loop !13

50:                                               ; preds = %43, %0, %8
  call void @llvm.lifetime.end.p0i8(i64 1650, i8* nonnull %4) #5
  call void @llvm.lifetime.end.p0i8(i64 4, i8* nonnull %3) #5
  ret i32 0
}

; Function Attrs: argmemonly mustprogress nofree nosync nounwind willreturn
declare void @llvm.lifetime.start.p0i8(i64 immarg, i8* nocapture) #1

; Function Attrs: nofree nounwind
declare noundef i32 @__isoc99_scanf(i8* nocapture noundef readonly, ...) local_unnamed_addr #2

; Function Attrs: argmemonly mustprogress nofree nounwind readonly willreturn
declare i64 @strlen(i8* nocapture) local_unnamed_addr #3

; Function Attrs: argmemonly mustprogress nofree nosync nounwind willreturn
declare void @llvm.lifetime.end.p0i8(i64 immarg, i8* nocapture) #1

; Function Attrs: nofree nounwind
declare noundef i32 @puts(i8* nocapture noundef readonly) local_unnamed_addr #4


!llvm.module.flags = !{!0, !1, !2, !3}
!llvm.ident = !{!4}

!0 = !{i32 1, !"wchar_size", i32 4}
!1 = !{i32 7, !"PIC Level", i32 2}
!2 = !{i32 7, !"PIE Level", i32 2}
!3 = !{i32 7, !"uwtable", i32 1}
!4 = !{!"clang version 13.0.0"}
!5 = !{!6, !6, i64 0}
!6 = !{!"int", !7, i64 0}
!7 = !{!"omnipotent char", !8, i64 0}
!8 = !{!"Simple C/C++ TBAA"}
!9 = distinct !{!9, !10}
!10 = !{!"llvm.loop.mustprogress"}
!11 = !{!7, !7, i64 0}
!12 = distinct !{!12, !10}
!13 = distinct !{!13, !10}
